; Function Attrs: mustprogress nounwind uwtable
define dso_local noundef i32 @_ZN4llvm8LoopNest18getMaxPerfectDepthERKNS_4LoopERNS_15ScalarEvolutionE(ptr noundef nonnull align 8 dereferenceable(152) %0, ptr noundef nonnull align 1 %1) local_unnamed_addr #0 align 2 {
  %3 = tail call noundef nonnull align 8 dereferenceable(24) ptr @_ZNK4llvm8LoopBaseINS_10BasicBlockENS_4LoopEE11getSubLoopsEv(ptr noundef nonnull align 8 dereferenceable(152) %0) #12
  %4 = getelementptr inbounds nuw i8, ptr %3, i64 8
  %5 = load ptr, ptr %4, align 8
  %6 = load ptr, ptr %3, align 8
  %7 = ptrtoint ptr %5 to i64
  %8 = ptrtoint ptr %6 to i64
  %9 = sub i64 %7, %8
  %10 = icmp eq i64 %9, 8
  br i1 %10, label %.lr.ph, label %._crit_edge

.lr.ph:                                           ; preds = %2, %15
  %11 = phi ptr [ %20, %15 ], [ %6, %2 ]
  %.013 = phi ptr [ %12, %15 ], [ %0, %2 ]
  %.01012 = phi i32 [ %17, %15 ], [ 1, %2 ]
  %12 = load ptr, ptr %11, align 8
  %13 = tail call noundef i32 @_ZN4llvm8LoopNest29analyzeLoopNestForPerfectNestERKNS_4LoopES3_RNS_15ScalarEvolutionE(ptr noundef nonnull align 8 dereferenceable(152) %.013, ptr noundef nonnull align 8 dereferenceable(152) %12, ptr noundef nonnull align 1 %1)
  %14 = icmp eq i32 %13, 0
  br i1 %14, label %15, label %._crit_edge

15:                                               ; preds = %.lr.ph
  %16 = tail call noundef nonnull align 8 dereferenceable(24) ptr @_ZNK4llvm8LoopBaseINS_10BasicBlockENS_4LoopEE11getSubLoopsEv(ptr noundef nonnull align 8 dereferenceable(152) %12) #12
  %17 = add i32 %.01012, 1
  %18 = getelementptr inbounds nuw i8, ptr %16, i64 8
  %19 = load ptr, ptr %18, align 8
  %20 = load ptr, ptr %16, align 8
  %21 = ptrtoint ptr %19 to i64
  %22 = ptrtoint ptr %20 to i64
  %23 = sub i64 %21, %22
  %24 = icmp eq i64 %23, 8
  br i1 %24, label %.lr.ph, label %._crit_edge, !llvm.loop !4

._crit_edge:                                      ; preds = %15, %.lr.ph, %2
  %.010.lcssa = phi i32 [ 1, %2 ], [ %.01012, %.lr.ph ], [ %17, %15 ]
  ret i32 %.010.lcssa
}